target datalayout = "e-m:e-p270:32:32-p271:32:32-p272:64:64-i64:64-i128:128-f80:128-n8:16:32:64-S128"
target triple = "x86_64-unknown-linux-gnu"

%"class.QuantLib::Period" = type { i32, i32 }
%"struct.QuantLib::detail::short_period_holder" = type { %"class.QuantLib::Period" }

; Function Attrs: mustprogress nounwind uwtable
define linkonce_odr void @_ZN8QuantLib6detail19short_period_holderC2ENS_6PeriodE(ptr noundef nonnull align 4 dereferenceable(8) %this, i64 %p.coerce) unnamed_addr #3 comdat align 2 {
entry:
  %p = alloca %"class.QuantLib::Period", align 4
  %this.addr = alloca ptr, align 8
  store i64 %p.coerce, ptr %p, align 4
  store ptr %this, ptr %this.addr, align 8, !tbaa !3
  %this1 = load ptr, ptr %this.addr, align 8
  %p2 = getelementptr inbounds nuw %"struct.QuantLib::detail::short_period_holder", ptr %this1, i32 0, i32 0
  call void @llvm.memcpy.p0.p0.i64(ptr align 4 %p2, ptr align 4 %p, i64 8, i1 false), !tbaa.struct !23
  ret void
}

; Function Attrs: mustprogress uwtable
define i64 @_ZN8QuantLib2io12short_periodERKNS_6PeriodE(ptr noundef nonnull align 4 dereferenceable(8) %p) #0 {
entry:
  %retval = alloca %"struct.QuantLib::detail::short_period_holder", align 4
  %p.addr = alloca ptr, align 8
  %agg.tmp = alloca %"class.QuantLib::Period", align 4
  store ptr %p, ptr %p.addr, align 8, !tbaa !3
  %0 = load ptr, ptr %p.addr, align 8, !tbaa !3
  call void @llvm.memcpy.p0.p0.i64(ptr align 4 %agg.tmp, ptr align 4 %0, i64 8, i1 false), !tbaa.struct !23
  %1 = load i64, ptr %agg.tmp, align 4
  call void @_ZN8QuantLib6detail19short_period_holderC2ENS_6PeriodE(ptr noundef nonnull align 4 dereferenceable(8) %retval, i64 %1)
  %coerce.dive = getelementptr inbounds nuw %"struct.QuantLib::detail::short_period_holder", ptr %retval, i32 0, i32 0
  %2 = load i64, ptr %coerce.dive, align 4
  ret i64 %2
}

; Function Attrs: mustprogress uwtable
define noundef nonnull align 8 dereferenceable(8) ptr @_ZN8QuantLiblsERSoRKNS_6PeriodE(ptr noundef nonnull align 8 dereferenceable(8) %out, ptr noundef nonnull align 4 dereferenceable(8) %p) #0 {
entry:
  %out.addr = alloca ptr, align 8
  %p.addr = alloca ptr, align 8
  %ref.tmp = alloca %"struct.QuantLib::detail::short_period_holder", align 4
  store ptr %out, ptr %out.addr, align 8, !tbaa !3
  store ptr %p, ptr %p.addr, align 8, !tbaa !3
  %0 = load ptr, ptr %out.addr, align 8, !tbaa !3
  call void @llvm.lifetime.start.p0(i64 8, ptr %ref.tmp) #13
  %1 = load ptr, ptr %p.addr, align 8, !tbaa !3
  %call = call i64 @_ZN8QuantLib2io12short_periodERKNS_6PeriodE(ptr noundef nonnull align 4 dereferenceable(8) %1)
  %coerce.dive = getelementptr inbounds nuw %"struct.QuantLib::detail::short_period_holder", ptr %ref.tmp, i32 0, i32 0
  store i64 %call, ptr %coerce.dive, align 4
  %call1 = call noundef nonnull align 8 dereferenceable(8) ptr @_ZN8QuantLib6detaillsERSoRKNS0_19short_period_holderE(ptr noundef nonnull align 8 dereferenceable(8) %0, ptr noundef nonnull align 4 dereferenceable(8) %ref.tmp)
  call void @llvm.lifetime.end.p0(i64 8, ptr %ref.tmp) #13
  ret ptr %call1
}