; Function Attrs: mustprogress uwtable
define noundef nonnull align 8 dereferenceable(8) ptr @_ZN8QuantLiblsERSoRKNS_6PeriodE(ptr noundef nonnull align 8 dereferenceable(8) %out, ptr nocapture noundef nonnull readonly align 4 dereferenceable(8) %p) local_unnamed_addr #0 {
entry:
  %ref.tmp = alloca %"struct.QuantLib::detail::short_period_holder", align 8
  call void @llvm.lifetime.start.p0(i64 8, ptr nonnull %ref.tmp) #17
  %agg.tmp.sroa.0.0.copyload.i = load i64, ptr %p, align 4
  store i64 %agg.tmp.sroa.0.0.copyload.i, ptr %ref.tmp, align 8
  %call1 = call noundef nonnull align 8 dereferenceable(8) ptr @_ZN8QuantLib6detaillsERSoRKNS0_19short_period_holderE(ptr noundef nonnull align 8 dereferenceable(8) %out, ptr noundef nonnull align 4 dereferenceable(8) %ref.tmp)
  call void @llvm.lifetime.end.p0(i64 8, ptr nonnull %ref.tmp) #17
  ret ptr %call1
}